; ModuleID = '22/60.c'
source_filename = "22/60.c"
target datalayout = "e-m:e-p270:32:32-p271:32:32-p272:64:64-i64:64-f80:128-n8:16:32:64-S128"
target triple = "x86_64-pc-linux-gnu"

@.str = private unnamed_addr constant [3 x i8] c"%d\00", align 1
@.str.1 = private unnamed_addr constant [3 x i8] c"No\00", align 1

; Function Attrs: noinline nounwind uwtable
define dso_local void @main() #0 {
  %1 = alloca [300 x i32], align 16
  %2 = alloca i32, align 4
  %3 = alloca i32, align 4
  %4 = alloca i32, align 4
  %5 = alloca i32, align 4
  %6 = alloca i32, align 4
  %7 = alloca [1200 x i8], align 16
  %8 = bitcast [300 x i32]* %1 to i8*
  call void @llvm.memset.p0i8.i64(i8* align 16 %8, i8 0, i64 1200, i1 false)
  store i32 0, i32* %4, align 4
  %9 = getelementptr inbounds [1200 x i8], [1200 x i8]* %7, i64 0, i64 0
  %10 = call i32 (i8*, ...) bitcast (i32 (...)* @gets to i32 (i8*, ...)*)(i8* %9)
  store i32 0, i32* %2, align 4
  br label %11

11:                                               ; preds = %19, %0
  %12 = load i32, i32* %2, align 4
  %13 = sext i32 %12 to i64
  %14 = getelementptr inbounds [1200 x i8], [1200 x i8]* %7, i64 0, i64 %13
  %15 = load i8, i8* %14, align 1
  %16 = sext i8 %15 to i32
  %17 = icmp ne i32 %16, 0
  br i1 %17, label %18, label %22

18:                                               ; preds = %11
  br label %19

19:                                               ; preds = %18
  %20 = load i32, i32* %2, align 4
  %21 = add nsw i32 %20, 1
  store i32 %21, i32* %2, align 4
  br label %11

22:                                               ; preds = %11
  %23 = load i32, i32* %2, align 4
  %24 = add nsw i32 %23, 1
  %25 = sext i32 %24 to i64
  %26 = getelementptr inbounds [1200 x i8], [1200 x i8]* %7, i64 0, i64 %25
  store i8 44, i8* %26, align 1
  store i32 0, i32* %2, align 4
  br label %27

27:                                               ; preds = %75, %22
  %28 = load i32, i32* %2, align 4
  %29 = sext i32 %28 to i64
  %30 = getelementptr inbounds [1200 x i8], [1200 x i8]* %7, i64 0, i64 %29
  %31 = load i8, i8* %30, align 1
  %32 = sext i8 %31 to i32
  %33 = icmp ne i32 %32, 0
  br i1 %33, label %34, label %78

34:                                               ; preds = %27
  %35 = load i32, i32* %2, align 4
  %36 = sext i32 %35 to i64
  %37 = getelementptr inbounds [1200 x i8], [1200 x i8]* %7, i64 0, i64 %36
  %38 = load i8, i8* %37, align 1
  %39 = sext i8 %38 to i32
  %40 = icmp sge i32 %39, 48
  br i1 %40, label %41, label %64

41:                                               ; preds = %34
  %42 = load i32, i32* %2, align 4
  %43 = sext i32 %42 to i64
  %44 = getelementptr inbounds [1200 x i8], [1200 x i8]* %7, i64 0, i64 %43
  %45 = load i8, i8* %44, align 1
  %46 = sext i8 %45 to i32
  %47 = icmp sle i32 %46, 57
  br i1 %47, label %48, label %64

48:                                               ; preds = %41
  %49 = load i32, i32* %4, align 4
  %50 = sext i32 %49 to i64
  %51 = getelementptr inbounds [300 x i32], [300 x i32]* %1, i64 0, i64 %50
  %52 = load i32, i32* %51, align 4
  %53 = mul nsw i32 %52, 10
  %54 = load i32, i32* %2, align 4
  %55 = sext i32 %54 to i64
  %56 = getelementptr inbounds [1200 x i8], [1200 x i8]* %7, i64 0, i64 %55
  %57 = load i8, i8* %56, align 1
  %58 = sext i8 %57 to i32
  %59 = add nsw i32 %53, %58
  %60 = sub nsw i32 %59, 48
  %61 = load i32, i32* %4, align 4
  %62 = sext i32 %61 to i64
  %63 = getelementptr inbounds [300 x i32], [300 x i32]* %1, i64 0, i64 %62
  store i32 %60, i32* %63, align 4
  br label %64

64:                                               ; preds = %48, %41, %34
  %65 = load i32, i32* %2, align 4
  %66 = sext i32 %65 to i64
  %67 = getelementptr inbounds [1200 x i8], [1200 x i8]* %7, i64 0, i64 %66
  %68 = load i8, i8* %67, align 1
  %69 = sext i8 %68 to i32
  %70 = icmp eq i32 %69, 44
  br i1 %70, label %71, label %74

71:                                               ; preds = %64
  %72 = load i32, i32* %4, align 4
  %73 = add nsw i32 %72, 1
  store i32 %73, i32* %4, align 4
  br label %74

74:                                               ; preds = %71, %64
  br label %75

75:                                               ; preds = %74
  %76 = load i32, i32* %2, align 4
  %77 = add nsw i32 %76, 1
  store i32 %77, i32* %2, align 4
  br label %27

78:                                               ; preds = %27
  %79 = load i32, i32* %4, align 4
  store i32 %79, i32* %3, align 4
  %80 = getelementptr inbounds [300 x i32], [300 x i32]* %1, i64 0, i64 0
  %81 = load i32, i32* %80, align 16
  store i32 %81, i32* %5, align 4
  store i32 0, i32* %4, align 4
  br label %82

82:                                               ; preds = %99, %78
  %83 = load i32, i32* %4, align 4
  %84 = load i32, i32* %3, align 4
  %85 = icmp sle i32 %83, %84
  br i1 %85, label %86, label %102

86:                                               ; preds = %82
  %87 = load i32, i32* %4, align 4
  %88 = sext i32 %87 to i64
  %89 = getelementptr inbounds [300 x i32], [300 x i32]* %1, i64 0, i64 %88
  %90 = load i32, i32* %89, align 4
  %91 = load i32, i32* %5, align 4
  %92 = icmp sgt i32 %90, %91
  br i1 %92, label %93, label %98

93:                                               ; preds = %86
  %94 = load i32, i32* %4, align 4
  %95 = sext i32 %94 to i64
  %96 = getelementptr inbounds [300 x i32], [300 x i32]* %1, i64 0, i64 %95
  %97 = load i32, i32* %96, align 4
  store i32 %97, i32* %5, align 4
  br label %98

98:                                               ; preds = %93, %86
  br label %99

99:                                               ; preds = %98
  %100 = load i32, i32* %4, align 4
  %101 = add nsw i32 %100, 1
  store i32 %101, i32* %4, align 4
  br label %82

102:                                              ; preds = %82
  store i32 0, i32* %4, align 4
  br label %103

103:                                              ; preds = %119, %102
  %104 = load i32, i32* %4, align 4
  %105 = load i32, i32* %3, align 4
  %106 = icmp sle i32 %104, %105
  br i1 %106, label %107, label %122

107:                                              ; preds = %103
  %108 = load i32, i32* %4, align 4
  %109 = sext i32 %108 to i64
  %110 = getelementptr inbounds [300 x i32], [300 x i32]* %1, i64 0, i64 %109
  %111 = load i32, i32* %110, align 4
  %112 = load i32, i32* %5, align 4
  %113 = icmp eq i32 %111, %112
  br i1 %113, label %114, label %118

114:                                              ; preds = %107
  %115 = load i32, i32* %4, align 4
  %116 = sext i32 %115 to i64
  %117 = getelementptr inbounds [300 x i32], [300 x i32]* %1, i64 0, i64 %116
  store i32 0, i32* %117, align 4
  br label %118

118:                                              ; preds = %114, %107
  br label %119

119:                                              ; preds = %118
  %120 = load i32, i32* %4, align 4
  %121 = add nsw i32 %120, 1
  store i32 %121, i32* %4, align 4
  br label %103

122:                                              ; preds = %103
  %123 = getelementptr inbounds [300 x i32], [300 x i32]* %1, i64 0, i64 0
  %124 = load i32, i32* %123, align 16
  store i32 %124, i32* %6, align 4
  store i32 0, i32* %4, align 4
  br label %125

125:                                              ; preds = %142, %122
  %126 = load i32, i32* %4, align 4
  %127 = load i32, i32* %3, align 4
  %128 = icmp sle i32 %126, %127
  br i1 %128, label %129, label %145

129:                                              ; preds = %125
  %130 = load i32, i32* %4, align 4
  %131 = sext i32 %130 to i64
  %132 = getelementptr inbounds [300 x i32], [300 x i32]* %1, i64 0, i64 %131
  %133 = load i32, i32* %132, align 4
  %134 = load i32, i32* %6, align 4
  %135 = icmp sgt i32 %133, %134
  br i1 %135, label %136, label %141

136:                                              ; preds = %129
  %137 = load i32, i32* %4, align 4
  %138 = sext i32 %137 to i64
  %139 = getelementptr inbounds [300 x i32], [300 x i32]* %1, i64 0, i64 %138
  %140 = load i32, i32* %139, align 4
  store i32 %140, i32* %6, align 4
  br label %141

141:                                              ; preds = %136, %129
  br label %142

142:                                              ; preds = %141
  %143 = load i32, i32* %4, align 4
  %144 = add nsw i32 %143, 1
  store i32 %144, i32* %4, align 4
  br label %125

145:                                              ; preds = %125
  %146 = load i32, i32* %6, align 4
  %147 = load i32, i32* %5, align 4
  %148 = icmp slt i32 %146, %147
  br i1 %148, label %149, label %155

149:                                              ; preds = %145
  %150 = load i32, i32* %6, align 4
  %151 = icmp sgt i32 %150, 0
  br i1 %151, label %152, label %155

152:                                              ; preds = %149
  %153 = load i32, i32* %6, align 4
  %154 = call i32 (i8*, ...) @printf(i8* getelementptr inbounds ([3 x i8], [3 x i8]* @.str, i64 0, i64 0), i32 %153)
  br label %155

155:                                              ; preds = %152, %149, %145
  %156 = load i32, i32* %6, align 4
  %157 = load i32, i32* %5, align 4
  %158 = icmp eq i32 %156, %157
  br i1 %158, label %162, label %159

159:                                              ; preds = %155
  %160 = load i32, i32* %6, align 4
  %161 = icmp eq i32 %160, 0
  br i1 %161, label %162, label %164

162:                                              ; preds = %159, %155
  %163 = call i32 (i8*, ...) @printf(i8* getelementptr inbounds ([3 x i8], [3 x i8]* @.str.1, i64 0, i64 0))
  br label %164

164:                                              ; preds = %162, %159
  ret void
}

; Function Attrs: argmemonly nounwind willreturn
declare void @llvm.memset.p0i8.i64(i8* nocapture writeonly, i8, i64, i1 immarg) #1

declare dso_local i32 @gets(...) #2

declare dso_local i32 @printf(i8*, ...) #2


!llvm.module.flags = !{!0}
!llvm.ident = !{!1}

!0 = !{i32 1, !"wchar_size", i32 4}
!1 = !{!"clang version 10.0.0-4ubuntu1 "}
